; Function Attrs: mustprogress nofree norecurse nosync nounwind willreturn memory(argmem: read) uwtable
define signext i8 @ures_hasNext_75(ptr noundef readonly %resB) local_unnamed_addr #9 {
entry:
  %cmp = icmp eq ptr %resB, null
  br i1 %cmp, label %return, label %if.end

if.end:                                           ; preds = %entry
  %fIndex = getelementptr inbounds i8, ptr %resB, i64 124
  %0 = load i32, ptr %fIndex, align 4
  %fSize = getelementptr inbounds i8, ptr %resB, i64 128
  %1 = load i32, ptr %fSize, align 8
  %sub = add nsw i32 %1, -1
  %cmp1 = icmp slt i32 %0, %sub
  %conv = zext i1 %cmp1 to i8
  br label %return

return:                                           ; preds = %entry, %if.end
  %retval.0 = phi i8 [ %conv, %if.end ], [ 0, %entry ]
  ret i8 %retval.0
}